target datalayout = "e-m:e-p270:32:32-p271:32:32-p272:64:64-i64:64-i128:128-f80:128-n8:16:32:64-S128"
target triple = "x86_64-pc-linux-gnu"

%struct.dynbuf = type { ptr, i64, i64, i64 }

@.str.5 = private unnamed_addr constant [2 x i8] c"/\00", align 1

; Function Attrs: nounwind uwtable
define internal i32 @ensure_trailing_slash(ptr noundef %0) #0 {
  %2 = alloca i32, align 4
  %3 = alloca ptr, align 8
  %4 = alloca i64, align 8
  %5 = alloca %struct.dynbuf, align 8
  %6 = alloca i32, align 4
  store ptr %0, ptr %3, align 8, !tbaa !11
  %7 = load ptr, ptr %3, align 8, !tbaa !11
  %8 = load ptr, ptr %7, align 8, !tbaa !9
  %9 = icmp ne ptr %8, null
  br i1 %9, label %10, label %63

10:                                               ; preds = %1
  %11 = load ptr, ptr %3, align 8, !tbaa !11
  %12 = load ptr, ptr %11, align 8, !tbaa !9
  %13 = load i8, ptr %12, align 1, !tbaa !30
  %14 = sext i8 %13 to i32
  %15 = icmp ne i32 %14, 0
  br i1 %15, label %16, label %63

16:                                               ; preds = %10
  call void @llvm.lifetime.start.p0(i64 8, ptr %4) #5
  %17 = load ptr, ptr %3, align 8, !tbaa !11
  %18 = load ptr, ptr %17, align 8, !tbaa !9
  %19 = call i64 @strlen(ptr noundef %18) #6
  store i64 %19, ptr %4, align 8, !tbaa !33
  %20 = load ptr, ptr %3, align 8, !tbaa !11
  %21 = load ptr, ptr %20, align 8, !tbaa !9
  %22 = load i64, ptr %4, align 8, !tbaa !33
  %23 = sub i64 %22, 1
  %24 = getelementptr inbounds nuw i8, ptr %21, i64 %23
  %25 = load i8, ptr %24, align 1, !tbaa !30
  %26 = sext i8 %25 to i32
  %27 = icmp ne i32 %26, 47
  br i1 %27, label %28, label %59

28:                                               ; preds = %16
  call void @llvm.lifetime.start.p0(i64 32, ptr %5) #5
  %29 = load i64, ptr %4, align 8, !tbaa !33
  %30 = add i64 %29, 2
  call void @curlx_dyn_init(ptr noundef %5, i64 noundef %30)
  %31 = load ptr, ptr %3, align 8, !tbaa !11
  %32 = load ptr, ptr %31, align 8, !tbaa !9
  %33 = load i64, ptr %4, align 8, !tbaa !33
  %34 = call i32 @curlx_dyn_addn(ptr noundef %5, ptr noundef %32, i64 noundef %33)
  %35 = icmp ne i32 %34, 0
  br i1 %35, label %36, label %43

36:                                               ; preds = %28
  br label %37

37:                                               ; preds = %36
  %38 = load ptr, ptr %3, align 8, !tbaa !11
  %39 = load ptr, ptr %38, align 8, !tbaa !9
  call void @free(ptr noundef %39) #5
  %40 = load ptr, ptr %3, align 8, !tbaa !11
  store ptr null, ptr %40, align 8, !tbaa !9
  br label %41

41:                                               ; preds = %37
  br label %42

42:                                               ; preds = %41
  store i32 27, ptr %2, align 4
  store i32 1, ptr %6, align 4
  br label %56

43:                                               ; preds = %28
  br label %44

44:                                               ; preds = %43
  %45 = load ptr, ptr %3, align 8, !tbaa !11
  %46 = load ptr, ptr %45, align 8, !tbaa !9
  call void @free(ptr noundef %46) #5
  %47 = load ptr, ptr %3, align 8, !tbaa !11
  store ptr null, ptr %47, align 8, !tbaa !9
  br label %48

48:                                               ; preds = %44
  br label %49

49:                                               ; preds = %48
  %50 = call i32 @curlx_dyn_addn(ptr noundef %5, ptr noundef @.str.5, i64 noundef 1)
  %51 = icmp ne i32 %50, 0
  br i1 %51, label %52, label %53

52:                                               ; preds = %49
  store i32 27, ptr %2, align 4
  store i32 1, ptr %6, align 4
  br label %56

53:                                               ; preds = %49
  %54 = call ptr @curlx_dyn_ptr(ptr noundef %5)
  %55 = load ptr, ptr %3, align 8, !tbaa !11
  store ptr %54, ptr %55, align 8, !tbaa !9
  store i32 0, ptr %6, align 4
  br label %56

56:                                               ; preds = %53, %52, %42
  call void @llvm.lifetime.end.p0(i64 32, ptr %5) #5
  %57 = load i32, ptr %6, align 4
  switch i32 %57, label %60 [
    i32 0, label %58
  ]

58:                                               ; preds = %56
  br label %59

59:                                               ; preds = %58, %16
  store i32 0, ptr %6, align 4
  br label %60

60:                                               ; preds = %59, %56
  call void @llvm.lifetime.end.p0(i64 8, ptr %4) #5
  %61 = load i32, ptr %6, align 4
  switch i32 %61, label %66 [
    i32 0, label %62
    i32 1, label %64
  ]

62:                                               ; preds = %60
  br label %63

63:                                               ; preds = %62, %10, %1
  store i32 0, ptr %2, align 4
  br label %64

64:                                               ; preds = %63, %60
  %65 = load i32, ptr %2, align 4
  ret i32 %65

66:                                               ; preds = %60
  unreachable
}