; Function Attrs: nounwind uwtable
define internal fastcc range(i32 0, 28) i32 @ensure_trailing_slash(ptr noundef captures(none) %0) unnamed_addr #0 {
  %2 = alloca %struct.dynbuf, align 8
  %3 = load ptr, ptr %0, align 8, !tbaa !4
  %.not = icmp eq ptr %3, null
  br i1 %.not, label %.thread, label %4

4:                                                ; preds = %1
  %5 = load i8, ptr %3, align 1, !tbaa !24
  %.not18 = icmp eq i8 %5, 0
  br i1 %.not18, label %.thread, label %6

6:                                                ; preds = %4
  %7 = tail call i64 @strlen(ptr noundef nonnull dereferenceable(1) %3) #9
  %8 = getelementptr i8, ptr %3, i64 %7
  %9 = getelementptr i8, ptr %8, i64 -1
  %10 = load i8, ptr %9, align 1, !tbaa !24
  %.not19 = icmp eq i8 %10, 47
  br i1 %.not19, label %.thread, label %11

11:                                               ; preds = %6
  call void @llvm.lifetime.start.p0(i64 32, ptr nonnull %2) #8
  %12 = add i64 %7, 2
  call void @curlx_dyn_init(ptr noundef nonnull %2, i64 noundef %12) #8
  %13 = load ptr, ptr %0, align 8, !tbaa !4
  %14 = call i32 @curlx_dyn_addn(ptr noundef nonnull %2, ptr noundef %13, i64 noundef %7) #8
  %.not20 = icmp eq i32 %14, 0
  %15 = load ptr, ptr %0, align 8, !tbaa !4
  call void @free(ptr noundef %15) #8
  store ptr null, ptr %0, align 8, !tbaa !4
  br i1 %.not20, label %16, label %.thread.sink.split

16:                                               ; preds = %11
  %17 = call i32 @curlx_dyn_addn(ptr noundef nonnull %2, ptr noundef nonnull @.str.5, i64 noundef 1) #8
  %.not21 = icmp eq i32 %17, 0
  br i1 %.not21, label %18, label %.thread.sink.split

18:                                               ; preds = %16
  %19 = call ptr @curlx_dyn_ptr(ptr noundef nonnull %2) #8
  store ptr %19, ptr %0, align 8, !tbaa !4
  br label %.thread.sink.split

.thread.sink.split:                               ; preds = %16, %11, %18
  %.3.ph = phi i32 [ 0, %18 ], [ 27, %11 ], [ 27, %16 ]
  call void @llvm.lifetime.end.p0(i64 32, ptr nonnull %2) #8
  br label %.thread

.thread:                                          ; preds = %.thread.sink.split, %6, %1, %4
  %.3 = phi i32 [ 0, %4 ], [ 0, %1 ], [ 0, %6 ], [ %.3.ph, %.thread.sink.split ]
  ret i32 %.3
}